(lp0
S'http://allrecipes.com/Recipe/Worlds-Best-Lasagna'
p1
aS'http://allrecipes.com/Recipe/Banana-Crumb-Muffins'
p2
aS'http://allrecipes.com/Recipe/Delicious-Ham-and-Potato-Soup'
p3
aS'http://allrecipes.com/Recipe/Banana-Banana-Bread'
p4
aS'http://allrecipes.com/Recipe/Award-Winning-Soft-Chocolate-Chip-Cookies'
p5
aS'http://allrecipes.com/Recipe/To-Die-For-Blueberry-Muffins'
p6
aS'http://allrecipes.com/Recipe/Chicken-Pot-Pie-IX'
p7
aS'http://allrecipes.com/Recipe/Fluffy-Pancakes-2'
p8
aS'http://allrecipes.com/Recipe/Broiled-Tilapia-Parmesan'
p9
aS'http://allrecipes.com/Recipe/Awesome-Slow-Cooker-Pot-Roast'
p10
aS'http://allrecipes.com/Recipe/Good-Old-Fashioned-Pancakes'
p11
aS'http://allrecipes.com/Recipe/Best-Chocolate-Chip-Cookies'
p12
aS'http://allrecipes.com/Recipe/Apple-Pie-by-Grandma-Ople'
p13
aS'http://allrecipes.com/Recipe/Best-Big-Fat-Chewy-Chocolate-Chip-Cookie'
p14
aS'http://allrecipes.com/Recipe/The-Best-Rolled-Sugar-Cookies'
p15
aS'http://allrecipes.com/Recipe/Downeast-Maine-Pumpkin-Bread'
p16
aS'http://allrecipes.com/Recipe/Slow-Cooker-Chicken-and-Dumplings'
p17
aS'http://allrecipes.com/Recipe/Best-Brownies'
p18
aS'http://allrecipes.com/Recipe/Brown-Sugar-Meatloaf'
p19
aS'http://allrecipes.com/Recipe/Clone-of-a-Cinnabon'
p20
a.